target datalayout = "e-m:e-p270:32:32-p271:32:32-p272:64:64-i64:64-i128:128-f80:128-n8:16:32:64-S128"
target triple = "x86_64-unknown-linux-gnu"

%"class.pbrt::Point2.100" = type { %"class.pbrt::Tuple2.101" }
%"class.pbrt::Tuple2.101" = type { float, float }

; Function Attrs: mustprogress nounwind uwtable
define internal noundef double @_ZN4pbrt5funcsL8diagonalENS_6Point2IfEE(<2 x float> %p.coerce) #11 {
entry:
  %p = alloca %"class.pbrt::Point2.100", align 4
  %coerce.dive = getelementptr inbounds %"class.pbrt::Point2.100", ptr %p, i32 0, i32 0
  store <2 x float> %p.coerce, ptr %coerce.dive, align 4
  %x = getelementptr inbounds %"class.pbrt::Tuple2.101", ptr %p, i32 0, i32 0
  %0 = load float, ptr %x, align 4
  %y = getelementptr inbounds %"class.pbrt::Tuple2.101", ptr %p, i32 0, i32 1
  %1 = load float, ptr %y, align 4
  %add = fadd float %0, %1
  %cmp = fcmp olt float %add, 1.000000e+00
  %cond = select i1 %cmp, i32 2, i32 0
  %conv = sitofp i32 %cond to double
  ret double %conv
}