; Function Attrs: mustprogress nofree norecurse nosync nounwind willreturn memory(none) uwtable
define internal noundef double @_ZN4pbrt5funcsL8diagonalENS_6Point2IfEE(<2 x float> %p.coerce) #16 {
entry:
  %shift = shufflevector <2 x float> %p.coerce, <2 x float> poison, <2 x i32> <i32 1, i32 poison>
  %0 = fadd <2 x float> %shift, %p.coerce
  %add = extractelement <2 x float> %0, i64 0
  %cmp = fcmp olt float %add, 1.000000e+00
  %conv = select i1 %cmp, double 2.000000e+00, double 0.000000e+00
  ret double %conv
}